; Function Attrs: nounwind uwtable
define noalias noundef ptr @Seg_ManConvertResult(ptr noundef readonly captures(none) %0) local_unnamed_addr #0 {
  %2 = tail call noalias dereferenceable_or_null(16) ptr @malloc(i64 noundef 16) #16
  %3 = getelementptr inbounds nuw i8, ptr %2, i64 4
  store i32 0, ptr %3, align 4, !tbaa !3
  store i32 1000, ptr %2, align 8, !tbaa !10
  %4 = tail call noalias dereferenceable_or_null(4000) ptr @malloc(i64 noundef 4000) #16
  %5 = getelementptr inbounds nuw i8, ptr %2, i64 8
  store ptr %4, ptr %5, align 8, !tbaa !11
  %6 = getelementptr inbounds nuw i8, ptr %0, i64 72
  %7 = load ptr, ptr %6, align 8, !tbaa !57
  %8 = getelementptr i8, ptr %7, i64 4
  %.val1416 = load i32, ptr %8, align 4, !tbaa !3
  %9 = icmp sgt i32 %.val1416, 1
  br i1 %9, label %.lr.ph, label %.critedge

.lr.ph:                                           ; preds = %1, %57
  %10 = phi ptr [ %58, %57 ], [ %7, %1 ]
  %11 = phi ptr [ %.pre.i.i21, %57 ], [ %4, %1 ]
  %indvars.iv = phi i64 [ %indvars.iv.next, %57 ], [ 0, %1 ]
  %12 = or disjoint i64 %indvars.iv, 1
  %13 = getelementptr i8, ptr %10, i64 8
  %.val13 = load ptr, ptr %13, align 8, !tbaa !11
  %14 = getelementptr inbounds nuw i32, ptr %.val13, i64 %indvars.iv
  %15 = load i32, ptr %14, align 4, !tbaa !32
  %16 = getelementptr inbounds nuw i32, ptr %.val13, i64 %12
  %17 = load i32, ptr %16, align 4, !tbaa !32
  %18 = load ptr, ptr %0, align 8, !tbaa !61
  %19 = lshr exact i64 %indvars.iv, 1
  %20 = getelementptr i8, ptr %18, i64 328
  %.val15 = load ptr, ptr %20, align 8, !tbaa !107
  %21 = getelementptr inbounds nuw i32, ptr %.val15, i64 %19
  %22 = load i32, ptr %21, align 4, !tbaa !32
  %.not = icmp eq i32 %22, 1
  br i1 %.not, label %23, label %57

23:                                               ; preds = %.lr.ph
  %24 = load i32, ptr %3, align 4, !tbaa !3
  %25 = load i32, ptr %2, align 8, !tbaa !10
  %26 = icmp eq i32 %24, %25
  br i1 %26, label %27, label %Vec_IntPush.exit.i

27:                                               ; preds = %23
  %28 = icmp slt i32 %24, 16
  br i1 %28, label %29, label %34

29:                                               ; preds = %27
  %.not9.i.i.i = icmp eq ptr %11, null
  br i1 %.not9.i.i.i, label %32, label %30

30:                                               ; preds = %29
  %31 = tail call dereferenceable_or_null(64) ptr @realloc(ptr noundef nonnull %11, i64 noundef 64) #18
  br label %Vec_IntPush.exit.i.sink.split

32:                                               ; preds = %29
  %33 = tail call noalias dereferenceable_or_null(64) ptr @malloc(i64 noundef 64) #16
  br label %Vec_IntPush.exit.i.sink.split

34:                                               ; preds = %27
  %35 = shl nuw nsw i32 %24, 1
  %.not9.i9.i.i = icmp eq ptr %11, null
  %36 = zext nneg i32 %35 to i64
  %37 = shl nuw nsw i64 %36, 2
  br i1 %.not9.i9.i.i, label %40, label %38

38:                                               ; preds = %34
  %39 = tail call ptr @realloc(ptr noundef nonnull %11, i64 noundef %37) #18
  br label %Vec_IntPush.exit.i.sink.split

40:                                               ; preds = %34
  %41 = tail call noalias ptr @malloc(i64 noundef %37) #16
  br label %Vec_IntPush.exit.i.sink.split

Vec_IntPush.exit.i.sink.split:                    ; preds = %38, %40, %30, %32
  %.sink24 = phi ptr [ %31, %30 ], [ %33, %32 ], [ %39, %38 ], [ %41, %40 ]
  %.sink = phi i32 [ 16, %30 ], [ 16, %32 ], [ %35, %38 ], [ %35, %40 ]
  store ptr %.sink24, ptr %5, align 8, !tbaa !11
  store i32 %.sink, ptr %2, align 8, !tbaa !10
  br label %Vec_IntPush.exit.i

Vec_IntPush.exit.i:                               ; preds = %Vec_IntPush.exit.i.sink.split, %23
  %.pre.i.i19 = phi ptr [ %11, %23 ], [ %.sink24, %Vec_IntPush.exit.i.sink.split ]
  %42 = add nsw i32 %24, 1
  store i32 %42, ptr %3, align 4, !tbaa !3
  %43 = sext i32 %24 to i64
  %44 = getelementptr inbounds i32, ptr %.pre.i.i19, i64 %43
  store i32 %15, ptr %44, align 4, !tbaa !32
  %45 = load i32, ptr %3, align 4, !tbaa !3
  %46 = load i32, ptr %2, align 8, !tbaa !10
  %47 = icmp eq i32 %45, %46
  br i1 %47, label %Vec_IntPush.exit9.sink.split.i, label %Vec_IntPushTwo.exit

Vec_IntPush.exit9.sink.split.i:                   ; preds = %Vec_IntPush.exit.i
  %48 = icmp slt i32 %45, 16
  %49 = shl nuw nsw i32 %45, 1
  %50 = zext nneg i32 %49 to i64
  %51 = shl nuw nsw i64 %50, 2
  %.sink25 = select i1 %48, i64 64, i64 %51
  %.sink.i = select i1 %48, i32 16, i32 %49
  %52 = tail call ptr @realloc(ptr noundef nonnull %.pre.i.i19, i64 noundef %.sink25) #18
  store ptr %52, ptr %5, align 8, !tbaa !11
  store i32 %.sink.i, ptr %2, align 8, !tbaa !10
  %.pre = load i32, ptr %3, align 4, !tbaa !3
  br label %Vec_IntPushTwo.exit

Vec_IntPushTwo.exit:                              ; preds = %Vec_IntPush.exit.i, %Vec_IntPush.exit9.sink.split.i
  %53 = phi i32 [ %45, %Vec_IntPush.exit.i ], [ %.pre, %Vec_IntPush.exit9.sink.split.i ]
  %.pre.i.i22 = phi ptr [ %.pre.i.i19, %Vec_IntPush.exit.i ], [ %52, %Vec_IntPush.exit9.sink.split.i ]
  %54 = add nsw i32 %53, 1
  store i32 %54, ptr %3, align 4, !tbaa !3
  %55 = sext i32 %53 to i64
  %56 = getelementptr inbounds i32, ptr %.pre.i.i22, i64 %55
  store i32 %17, ptr %56, align 4, !tbaa !32
  %.pre23 = load ptr, ptr %6, align 8, !tbaa !57
  br label %57

57:                                               ; preds = %.lr.ph, %Vec_IntPushTwo.exit
  %58 = phi ptr [ %10, %.lr.ph ], [ %.pre23, %Vec_IntPushTwo.exit ]
  %.pre.i.i21 = phi ptr [ %11, %.lr.ph ], [ %.pre.i.i22, %Vec_IntPushTwo.exit ]
  %indvars.iv.next = add nuw nsw i64 %indvars.iv, 2
  %59 = getelementptr i8, ptr %58, i64 4
  %.val14 = load i32, ptr %59, align 4, !tbaa !3
  %60 = trunc i64 %indvars.iv.next to i32
  %61 = or disjoint i32 %60, 1
  %62 = icmp slt i32 %61, %.val14
  br i1 %62, label %.lr.ph, label %.critedge, !llvm.loop !108

.critedge:                                        ; preds = %57, %1
  ret ptr %2
}